target datalayout = "e-m:e-p270:32:32-p271:32:32-p272:64:64-i64:64-i128:128-f80:128-n8:16:32:64-S128"
target triple = "x86_64-pc-linux-gnu"

%struct._hashlibstate = type { ptr, ptr, ptr, ptr, ptr, ptr }

@EVPtype_spec = internal global { ptr, i32, i32, i32, [4 x i8], ptr } { ptr @.str.122, i32 32, i32 0, i32 1408, [4 x i8] zeroinitializer, ptr @EVPtype_slots }, align 8

; Function Attrs: inlinehint nounwind uwtable
define internal ptr @get_hashlib_state(ptr noundef %0) #4 {
  %2 = alloca ptr, align 8
  %3 = alloca ptr, align 8
  store ptr %0, ptr %2, align 8, !tbaa !14
  call void @llvm.lifetime.start.p0(i64 8, ptr %3) #9
  %4 = load ptr, ptr %2, align 8, !tbaa !14
  %5 = call ptr @PyModule_GetState(ptr noundef %4)
  store ptr %5, ptr %3, align 8, !tbaa !3
  %6 = load ptr, ptr %3, align 8, !tbaa !3
  call void @llvm.lifetime.end.p0(i64 8, ptr %3) #9
  ret ptr %6
}

; Function Attrs: nounwind uwtable
define internal i32 @hashlib_init_evptype(ptr noundef %0) #0 {
  %2 = alloca i32, align 4
  %3 = alloca ptr, align 8
  %4 = alloca ptr, align 8
  %5 = alloca i32, align 4
  store ptr %0, ptr %3, align 8, !tbaa !14
  call void @llvm.lifetime.start.p0(i64 8, ptr %4) #9
  %6 = load ptr, ptr %3, align 8, !tbaa !14
  %7 = call ptr @get_hashlib_state(ptr noundef %6)
  store ptr %7, ptr %4, align 8, !tbaa !3
  %8 = call ptr @PyType_FromSpec(ptr noundef @EVPtype_spec)
  %9 = load ptr, ptr %4, align 8, !tbaa !3
  %10 = getelementptr inbounds nuw %struct._hashlibstate, ptr %9, i32 0, i32 0
  store ptr %8, ptr %10, align 8, !tbaa !57
  %11 = load ptr, ptr %4, align 8, !tbaa !3
  %12 = getelementptr inbounds nuw %struct._hashlibstate, ptr %11, i32 0, i32 0
  %13 = load ptr, ptr %12, align 8, !tbaa !57
  %14 = icmp eq ptr %13, null
  br i1 %14, label %15, label %16

15:                                               ; preds = %1
  store i32 -1, ptr %2, align 4
  store i32 1, ptr %5, align 4
  br label %25

16:                                               ; preds = %1
  %17 = load ptr, ptr %3, align 8, !tbaa !14
  %18 = load ptr, ptr %4, align 8, !tbaa !3
  %19 = getelementptr inbounds nuw %struct._hashlibstate, ptr %18, i32 0, i32 0
  %20 = load ptr, ptr %19, align 8, !tbaa !57
  %21 = call i32 @PyModule_AddType(ptr noundef %17, ptr noundef %20)
  %22 = icmp slt i32 %21, 0
  br i1 %22, label %23, label %24

23:                                               ; preds = %16
  store i32 -1, ptr %2, align 4
  store i32 1, ptr %5, align 4
  br label %25

24:                                               ; preds = %16
  store i32 0, ptr %2, align 4
  store i32 1, ptr %5, align 4
  br label %25

25:                                               ; preds = %24, %23, %15
  call void @llvm.lifetime.end.p0(i64 8, ptr %4) #9
  %26 = load i32, ptr %2, align 4
  ret i32 %26
}